Certificate:
    Data:
        Version: 3 (0x2)
        Serial Number: 1 (0x1)
        Signature Algorithm: sha256WithRSAEncryption
        Issuer: DC=org.ua, DC=meters, O=Meters & Utility Bills, OU=Meters & Utility Bills CA, CN=Meters & Utility Bills CA
        Validity
            Not Before: Apr 30 14:40:23 2023 GMT
            Not After : Apr 29 14:40:23 2033 GMT
        Subject: DC=org.ua, DC=meters, O=Meters & Utility Bills, OU=Meters & Utility Bills CA, CN=Meters & Utility Bills CA
        Subject Public Key Info:
            Public Key Algorithm: rsaEncryption
                Public-Key: (2048 bit)
                Modulus:
                    00:a9:93:80:3c:bf:b9:1d:e4:3a:85:93:0f:1d:bd:
                    0f:1e:58:22:f8:b5:c6:7e:77:64:c6:c6:04:63:ff:
                    5b:f7:dd:ea:63:88:4e:5b:98:d5:d5:0b:3f:df:ab:
                    7a:47:d9:92:35:4d:c4:28:e1:99:04:e7:72:e1:c8:
                    ea:92:b2:c0:83:cf:30:1b:3e:e7:60:4b:10:45:c5:
                    cb:86:7b:7b:e8:f6:78:a8:a7:4c:51:e6:c8:ec:ad:
                    09:1c:ef:8a:b9:fa:bf:e5:63:04:96:57:2c:51:6a:
                    93:e4:20:37:6e:85:74:8c:33:47:89:a0:92:f8:7d:
                    2b:c7:b2:fe:dd:88:5c:ac:cb:2e:da:0d:3e:5c:a1:
                    0f:47:4d:0c:05:6c:93:be:2e:8b:d6:b4:87:b9:02:
                    35:2a:a8:b5:da:7c:a2:0b:c7:74:f3:12:d5:08:d6:
                    c9:9e:8b:a3:7a:18:4e:94:af:34:22:42:35:93:07:
                    7e:bd:51:c4:13:4f:6c:4d:d9:24:6d:62:2a:8d:96:
                    bb:f3:32:36:85:44:1f:a6:c0:50:f1:bc:b9:88:e7:
                    8c:ad:94:f9:e9:2e:d2:17:10:b6:5a:21:85:c2:e3:
                    a9:b1:1f:0d:f4:c8:60:32:9c:da:81:1a:fd:37:62:
                    15:9b:98:2b:cc:98:e7:85:aa:d4:8e:9a:83:e2:7b:
                    04:ed
                Exponent: 65537 (0x10001)
        X509v3 extensions:
            X509v3 Key Usage: critical
                Certificate Sign, CRL Sign
            X509v3 Basic Constraints: critical
                CA:TRUE
            X509v3 Subject Key Identifier: 
                C4:7E:BD:06:74:89:FC:EA:76:8F:17:F1:22:47:90:88:FF:7F:A5:75
            X509v3 Authority Key Identifier: 
                C4:7E:BD:06:74:89:FC:EA:76:8F:17:F1:22:47:90:88:FF:7F:A5:75
    Signature Algorithm: sha256WithRSAEncryption
    Signature Value:
        86:c3:29:67:38:60:83:8d:bf:79:a2:9f:b0:18:b0:f2:06:8f:
        cd:87:ce:ba:28:b4:45:d6:26:68:0b:b5:03:d1:2e:a4:0f:5f:
        09:9f:6d:3e:d4:0f:c8:24:37:48:12:46:bb:a8:df:de:1a:1b:
        18:bc:12:fa:c1:b8:3f:ba:53:7e:6c:32:16:9a:d8:26:cb:2e:
        6b:46:3a:f3:a1:67:25:8a:4c:7d:f8:91:aa:41:34:b5:cb:8b:
        59:e2:d5:89:a1:35:07:52:0d:7d:88:8f:70:e8:7b:fe:58:74:
        05:56:54:55:99:6b:f8:66:fb:f2:24:3a:1c:3f:65:ea:98:bb:
        cb:c5:f2:2e:42:4f:63:60:fc:92:60:e8:15:fe:ed:55:d4:2b:
        1c:91:c8:ed:df:e9:f0:0d:49:9c:68:d5:ca:ac:d1:0c:4f:c1:
        86:a4:59:a4:4b:63:e0:2f:33:80:41:d8:cf:41:fb:46:3d:25:
        12:c6:e6:97:81:13:2d:22:a5:b7:d2:35:a2:e9:0e:ff:05:05:
        bb:38:b9:d5:30:f1:33:60:9b:47:0e:87:46:4b:25:1f:7e:7c:
        65:81:27:a5:ea:2e:64:f1:3c:d8:96:f8:06:d1:75:72:76:33:
        12:bd:bf:49:fa:ba:b0:1b:2d:34:72:30:65:34:39:da:70:74:
        c2:72:2a:07
-----BEGIN CERTIFICATE-----
MIIEEjCCAvqgAwIBAgIBATANBgkqhkiG9w0BAQsFADCBmTEWMBQGCgmSJomT8ixk
ARkWBm9yZy51YTEWMBQGCgmSJomT8ixkARkWBm1ldGVyczEfMB0GA1UECgwWTWV0
ZXJzICYgVXRpbGl0eSBCaWxsczEiMCAGA1UECwwZTWV0ZXJzICYgVXRpbGl0eSBC
aWxscyBDQTEiMCAGA1UEAwwZTWV0ZXJzICYgVXRpbGl0eSBCaWxscyBDQTAeFw0y
MzA0MzAxNDQwMjNaFw0zMzA0MjkxNDQwMjNaMIGZMRYwFAYKCZImiZPyLGQBGRYG
b3JnLnVhMRYwFAYKCZImiZPyLGQBGRYGbWV0ZXJzMR8wHQYDVQQKDBZNZXRlcnMg
JiBVdGlsaXR5IEJpbGxzMSIwIAYDVQQLDBlNZXRlcnMgJiBVdGlsaXR5IEJpbGxz
IENBMSIwIAYDVQQDDBlNZXRlcnMgJiBVdGlsaXR5IEJpbGxzIENBMIIBIjANBgkq
hkiG9w0BAQEFAAOCAQ8AMIIBCgKCAQEAqZOAPL+5HeQ6hZMPHb0PHlgi+LXGfndk
xsYEY/9b993qY4hOW5jV1Qs/36t6R9mSNU3EKOGZBOdy4cjqkrLAg88wGz7nYEsQ
RcXLhnt76PZ4qKdMUebI7K0JHO+Kufq/5WMEllcsUWqT5CA3boV0jDNHiaCS+H0r
x7L+3YhcrMsu2g0+XKEPR00MBWyTvi6L1rSHuQI1Kqi12nyiC8d08xLVCNbJnouj
ehhOlK80IkI1kwd+vVHEE09sTdkkbWIqjZa78zI2hUQfpsBQ8by5iOeMrZT56S7S
FxC2WiGFwuOpsR8N9MhgMpzagRr9N2IVm5grzJjnharUjpqD4nsE7QIDAQABo2Mw
YTAOBgNVHQ8BAf8EBAMCAQYwDwYDVR0TAQH/BAUwAwEB/zAdBgNVHQ4EFgQUxH69
BnSJ/Op2jxfxIkeQiP9/pXUwHwYDVR0jBBgwFoAUxH69BnSJ/Op2jxfxIkeQiP9/
pXUwDQYJKoZIhvcNAQELBQADggEBAIbDKWc4YIONv3min7AYsPIGj82HzrootEXW
JmgLtQPRLqQPXwmfbT7UD8gkN0gSRruo394aGxi8EvrBuD+6U35sMhaa2CbLLmtG
OvOhZyWKTH34kapBNLXLi1ni1YmhNQdSDX2Ij3Doe/5YdAVWVFWZa/hm+/IkOhw/
ZeqYu8vF8i5CT2Ng/JJg6BX+7VXUKxyRyO3f6fANSZxo1cqs0QxPwYakWaRLY+Av
M4BB2M9B+0Y9JRLG5peBEy0ipbfSNaLpDv8FBbs4udUw8TNgm0cOh0ZLJR9+fGWB
J6XqLmTxPNiW+AbRdXJ2MxK9v0n6urAbLTRyMGU0OdpwdMJyKgc=
-----END CERTIFICATE-----
